target datalayout = "e-m:e-p270:32:32-p271:32:32-p272:64:64-i64:64-i128:128-f80:128-n8:16:32:64-S128"
target triple = "x86_64-pc-linux-gnu"

@.str.152 = private unnamed_addr constant [31 x i8] c">= 65535 minutes or N/A (%04x)\00", align 1
@.str.153 = private unnamed_addr constant [18 x i8] c"%d minutes (%04x)\00", align 1

; Function Attrs: nounwind uwtable
define internal void @rach_gps_timestamp_fmt(ptr noundef %0, i32 noundef %1) #0 {
  %3 = alloca ptr, align 8
  %4 = alloca i32, align 4
  store ptr %0, ptr %3, align 8
  store i32 %1, ptr %4, align 4
  %5 = load i32, ptr %4, align 4
  %6 = icmp eq i32 %5, 65535
  br i1 %6, label %7, label %11

7:                                                ; preds = %2
  %8 = load ptr, ptr %3, align 8
  %9 = load i32, ptr %4, align 4
  %10 = call i32 (ptr, i64, ptr, ...) @snprintf(ptr noundef %8, i64 noundef 240, ptr noundef @.str.152, i32 noundef %9) #4
  br label %16

11:                                               ; preds = %2
  %12 = load ptr, ptr %3, align 8
  %13 = load i32, ptr %4, align 4
  %14 = load i32, ptr %4, align 4
  %15 = call i32 (ptr, i64, ptr, ...) @snprintf(ptr noundef %12, i64 noundef 240, ptr noundef @.str.153, i32 noundef %13, i32 noundef %14) #4
  br label %16

16:                                               ; preds = %11, %7
  ret void
}