; Function Attrs: nofree nounwind uwtable
define internal void @rach_gps_timestamp_fmt(ptr noundef writeonly captures(none) %0, i32 noundef %1) #1 {
  %3 = icmp eq i32 %1, 65535
  br i1 %3, label %4, label %6

4:                                                ; preds = %2
  %5 = tail call i32 (ptr, i64, ptr, ...) @snprintf(ptr noundef nonnull dereferenceable(1) %0, i64 noundef 240, ptr noundef nonnull @.str.152, i32 noundef 65535) #7
  br label %8

6:                                                ; preds = %2
  %7 = tail call i32 (ptr, i64, ptr, ...) @snprintf(ptr noundef nonnull dereferenceable(1) %0, i64 noundef 240, ptr noundef nonnull @.str.153, i32 noundef %1, i32 noundef %1) #7
  br label %8

8:                                                ; preds = %6, %4
  ret void
}